target datalayout = "e-m:e-p270:32:32-p271:32:32-p272:64:64-i64:64-i128:128-f80:128-n8:16:32:64-S128"
target triple = "x86_64-pc-linux-gnu"

%struct.Maj3_Man_t_ = type { i32, i32, i32, i32, i32, ptr, ptr, [32 x [32 x i32]], [32 x i32], [2 x [32 x i32]], [3 x i32], ptr }

; Function Attrs: nounwind uwtable
define internal i32 @Abc_Var2Lit(i32 noundef %0, i32 noundef %1) #0 {
  %3 = alloca i32, align 4
  %4 = alloca i32, align 4
  store i32 %0, ptr %3, align 4
  store i32 %1, ptr %4, align 4
  %5 = load i32, ptr %3, align 4
  %6 = load i32, ptr %3, align 4
  %7 = add nsw i32 %5, %6
  %8 = load i32, ptr %4, align 4
  %9 = add nsw i32 %7, %8
  ret i32 %9
}

; Function Attrs: nounwind uwtable
define i32 @Maj3_ManAddCnfStart(ptr noundef %0) #0 {
  %2 = alloca ptr, align 8
  %3 = alloca i32, align 4
  %4 = alloca i32, align 4
  %5 = alloca i32, align 4
  %6 = alloca i32, align 4
  %7 = alloca [32 x i32], align 16
  %8 = alloca i32, align 4
  %9 = alloca i32, align 4
  store ptr %0, ptr %2, align 8
  %10 = load ptr, ptr %2, align 8
  %11 = getelementptr inbounds %struct.Maj3_Man_t_, ptr %10, i32 0, i32 0
  %12 = load i32, ptr %11, align 8
  store i32 %12, ptr %3, align 4
  br label %13

13:                                               ; preds = %97, %1
  %14 = load i32, ptr %3, align 4
  %15 = load ptr, ptr %2, align 8
  %16 = getelementptr inbounds %struct.Maj3_Man_t_, ptr %15, i32 0, i32 2
  %17 = load i32, ptr %16, align 8
  %18 = icmp slt i32 %14, %17
  br i1 %18, label %19, label %100

19:                                               ; preds = %13
  store i32 0, ptr %8, align 4
  store i32 0, ptr %4, align 4
  br label %20

20:                                               ; preds = %40, %19
  %21 = load i32, ptr %4, align 4
  %22 = load ptr, ptr %2, align 8
  %23 = getelementptr inbounds %struct.Maj3_Man_t_, ptr %22, i32 0, i32 2
  %24 = load i32, ptr %23, align 8
  %25 = icmp slt i32 %21, %24
  br i1 %25, label %26, label %43

26:                                               ; preds = %20
  %27 = load ptr, ptr %2, align 8
  %28 = getelementptr inbounds %struct.Maj3_Man_t_, ptr %27, i32 0, i32 7
  %29 = load i32, ptr %3, align 4
  %30 = sext i32 %29 to i64
  %31 = getelementptr inbounds [32 x [32 x i32]], ptr %28, i64 0, i64 %30
  %32 = load i32, ptr %4, align 4
  %33 = sext i32 %32 to i64
  %34 = getelementptr inbounds [32 x i32], ptr %31, i64 0, i64 %33
  %35 = load i32, ptr %34, align 4
  %36 = icmp eq i32 %35, 1
  %37 = zext i1 %36 to i32
  %38 = load i32, ptr %8, align 4
  %39 = add nsw i32 %38, %37
  store i32 %39, ptr %8, align 4
  br label %40

40:                                               ; preds = %26
  %41 = load i32, ptr %4, align 4
  %42 = add nsw i32 %41, 1
  store i32 %42, ptr %4, align 4
  br label %20, !llvm.loop !26

43:                                               ; preds = %20
  %44 = load i32, ptr %8, align 4
  %45 = icmp eq i32 %44, 3
  br i1 %45, label %46, label %47

46:                                               ; preds = %43
  br label %97

47:                                               ; preds = %43
  store i32 0, ptr %6, align 4
  store i32 0, ptr %4, align 4
  br label %48

48:                                               ; preds = %81, %47
  %49 = load i32, ptr %4, align 4
  %50 = load ptr, ptr %2, align 8
  %51 = getelementptr inbounds %struct.Maj3_Man_t_, ptr %50, i32 0, i32 2
  %52 = load i32, ptr %51, align 8
  %53 = icmp slt i32 %49, %52
  br i1 %53, label %54, label %84

54:                                               ; preds = %48
  %55 = load ptr, ptr %2, align 8
  %56 = getelementptr inbounds %struct.Maj3_Man_t_, ptr %55, i32 0, i32 7
  %57 = load i32, ptr %3, align 4
  %58 = sext i32 %57 to i64
  %59 = getelementptr inbounds [32 x [32 x i32]], ptr %56, i64 0, i64 %58
  %60 = load i32, ptr %4, align 4
  %61 = sext i32 %60 to i64
  %62 = getelementptr inbounds [32 x i32], ptr %59, i64 0, i64 %61
  %63 = load i32, ptr %62, align 4
  %64 = icmp sgt i32 %63, 1
  br i1 %64, label %65, label %80

65:                                               ; preds = %54
  %66 = load ptr, ptr %2, align 8
  %67 = getelementptr inbounds %struct.Maj3_Man_t_, ptr %66, i32 0, i32 7
  %68 = load i32, ptr %3, align 4
  %69 = sext i32 %68 to i64
  %70 = getelementptr inbounds [32 x [32 x i32]], ptr %67, i64 0, i64 %69
  %71 = load i32, ptr %4, align 4
  %72 = sext i32 %71 to i64
  %73 = getelementptr inbounds [32 x i32], ptr %70, i64 0, i64 %72
  %74 = load i32, ptr %73, align 4
  %75 = call i32 @Abc_Var2Lit(i32 noundef %74, i32 noundef 0)
  %76 = load i32, ptr %6, align 4
  %77 = add nsw i32 %76, 1
  store i32 %77, ptr %6, align 4
  %78 = sext i32 %76 to i64
  %79 = getelementptr inbounds [32 x i32], ptr %7, i64 0, i64 %78
  store i32 %75, ptr %79, align 4
  br label %80

80:                                               ; preds = %65, %54
  br label %81

81:                                               ; preds = %80
  %82 = load i32, ptr %4, align 4
  %83 = add nsw i32 %82, 1
  store i32 %83, ptr %4, align 4
  br label %48, !llvm.loop !27

84:                                               ; preds = %48
  %85 = load i32, ptr %6, align 4
  %86 = icmp sgt i32 %85, 0
  br i1 %86, label %87, label %96

87:                                               ; preds = %84
  %88 = load ptr, ptr %2, align 8
  %89 = getelementptr inbounds %struct.Maj3_Man_t_, ptr %88, i32 0, i32 11
  %90 = load ptr, ptr %89, align 8
  %91 = getelementptr inbounds [32 x i32], ptr %7, i64 0, i64 0
  %92 = load i32, ptr %6, align 4
  %93 = call i32 @bmcg_sat_solver_addclause(ptr noundef %90, ptr noundef %91, i32 noundef %92)
  %94 = icmp ne i32 %93, 0
  br i1 %94, label %96, label %95

95:                                               ; preds = %87
  br label %96

96:                                               ; preds = %95, %87, %84
  br label %97

97:                                               ; preds = %96, %46
  %98 = load i32, ptr %3, align 4
  %99 = add nsw i32 %98, 1
  store i32 %99, ptr %3, align 4
  br label %13, !llvm.loop !28

100:                                              ; preds = %13
  store i32 0, ptr %4, align 4
  br label %101

101:                                              ; preds = %186, %100
  %102 = load i32, ptr %4, align 4
  %103 = load ptr, ptr %2, align 8
  %104 = getelementptr inbounds %struct.Maj3_Man_t_, ptr %103, i32 0, i32 2
  %105 = load i32, ptr %104, align 8
  %106 = sub nsw i32 %105, 1
  %107 = icmp slt i32 %102, %106
  br i1 %107, label %108, label %189

108:                                              ; preds = %101
  store i32 0, ptr %9, align 4
  store i32 0, ptr %3, align 4
  br label %109

109:                                              ; preds = %129, %108
  %110 = load i32, ptr %3, align 4
  %111 = load ptr, ptr %2, align 8
  %112 = getelementptr inbounds %struct.Maj3_Man_t_, ptr %111, i32 0, i32 2
  %113 = load i32, ptr %112, align 8
  %114 = icmp slt i32 %110, %113
  br i1 %114, label %115, label %132

115:                                              ; preds = %109
  %116 = load ptr, ptr %2, align 8
  %117 = getelementptr inbounds %struct.Maj3_Man_t_, ptr %116, i32 0, i32 7
  %118 = load i32, ptr %3, align 4
  %119 = sext i32 %118 to i64
  %120 = getelementptr inbounds [32 x [32 x i32]], ptr %117, i64 0, i64 %119
  %121 = load i32, ptr %4, align 4
  %122 = sext i32 %121 to i64
  %123 = getelementptr inbounds [32 x i32], ptr %120, i64 0, i64 %122
  %124 = load i32, ptr %123, align 4
  %125 = icmp eq i32 %124, 1
  %126 = zext i1 %125 to i32
  %127 = load i32, ptr %9, align 4
  %128 = add nsw i32 %127, %126
  store i32 %128, ptr %9, align 4
  br label %129

129:                                              ; preds = %115
  %130 = load i32, ptr %3, align 4
  %131 = add nsw i32 %130, 1
  store i32 %131, ptr %3, align 4
  br label %109, !llvm.loop !29

132:                                              ; preds = %109
  %133 = load i32, ptr %9, align 4
  %134 = icmp sgt i32 %133, 0
  br i1 %134, label %135, label %136

135:                                              ; preds = %132
  br label %186

136:                                              ; preds = %132
  store i32 0, ptr %6, align 4
  store i32 0, ptr %3, align 4
  br label %137

137:                                              ; preds = %170, %136
  %138 = load i32, ptr %3, align 4
  %139 = load ptr, ptr %2, align 8
  %140 = getelementptr inbounds %struct.Maj3_Man_t_, ptr %139, i32 0, i32 2
  %141 = load i32, ptr %140, align 8
  %142 = icmp slt i32 %138, %141
  br i1 %142, label %143, label %173

143:                                              ; preds = %137
  %144 = load ptr, ptr %2, align 8
  %145 = getelementptr inbounds %struct.Maj3_Man_t_, ptr %144, i32 0, i32 7
  %146 = load i32, ptr %3, align 4
  %147 = sext i32 %146 to i64
  %148 = getelementptr inbounds [32 x [32 x i32]], ptr %145, i64 0, i64 %147
  %149 = load i32, ptr %4, align 4
  %150 = sext i32 %149 to i64
  %151 = getelementptr inbounds [32 x i32], ptr %148, i64 0, i64 %150
  %152 = load i32, ptr %151, align 4
  %153 = icmp sgt i32 %152, 1
  br i1 %153, label %154, label %169

154:                                              ; preds = %143
  %155 = load ptr, ptr %2, align 8
  %156 = getelementptr inbounds %struct.Maj3_Man_t_, ptr %155, i32 0, i32 7
  %157 = load i32, ptr %3, align 4
  %158 = sext i32 %157 to i64
  %159 = getelementptr inbounds [32 x [32 x i32]], ptr %156, i64 0, i64 %158
  %160 = load i32, ptr %4, align 4
  %161 = sext i32 %160 to i64
  %162 = getelementptr inbounds [32 x i32], ptr %159, i64 0, i64 %161
  %163 = load i32, ptr %162, align 4
  %164 = call i32 @Abc_Var2Lit(i32 noundef %163, i32 noundef 0)
  %165 = load i32, ptr %6, align 4
  %166 = add nsw i32 %165, 1
  store i32 %166, ptr %6, align 4
  %167 = sext i32 %165 to i64
  %168 = getelementptr inbounds [32 x i32], ptr %7, i64 0, i64 %167
  store i32 %164, ptr %168, align 4
  br label %169

169:                                              ; preds = %154, %143
  br label %170

170:                                              ; preds = %169
  %171 = load i32, ptr %3, align 4
  %172 = add nsw i32 %171, 1
  store i32 %172, ptr %3, align 4
  br label %137, !llvm.loop !30

173:                                              ; preds = %137
  %174 = load i32, ptr %6, align 4
  %175 = icmp sgt i32 %174, 0
  br i1 %175, label %176, label %185

176:                                              ; preds = %173
  %177 = load ptr, ptr %2, align 8
  %178 = getelementptr inbounds %struct.Maj3_Man_t_, ptr %177, i32 0, i32 11
  %179 = load ptr, ptr %178, align 8
  %180 = getelementptr inbounds [32 x i32], ptr %7, i64 0, i64 0
  %181 = load i32, ptr %6, align 4
  %182 = call i32 @bmcg_sat_solver_addclause(ptr noundef %179, ptr noundef %180, i32 noundef %181)
  %183 = icmp ne i32 %182, 0
  br i1 %183, label %185, label %184

184:                                              ; preds = %176
  br label %185

185:                                              ; preds = %184, %176, %173
  br label %186

186:                                              ; preds = %185, %135
  %187 = load i32, ptr %4, align 4
  %188 = add nsw i32 %187, 1
  store i32 %188, ptr %4, align 4
  br label %101, !llvm.loop !31

189:                                              ; preds = %101
  %190 = load ptr, ptr %2, align 8
  %191 = getelementptr inbounds %struct.Maj3_Man_t_, ptr %190, i32 0, i32 11
  %192 = load ptr, ptr %191, align 8
  %193 = call i32 @bmcg_sat_solver_solve(ptr noundef %192, ptr noundef null, i32 noundef 0)
  store i32 %193, ptr %5, align 4
  %194 = load ptr, ptr %2, align 8
  call void @Maj3_ManVarMapPrint(ptr noundef %194)
  ret i32 1
}