; Function Attrs: nounwind uwtable
define noundef i32 @Maj3_ManAddCnfStart(ptr noundef readonly captures(none) %0) local_unnamed_addr #2 {
  %2 = alloca [32 x i32], align 16
  %3 = load i32, ptr %0, align 8
  %4 = getelementptr inbounds nuw i8, ptr %0, i64 8
  %5 = load i32, ptr %4, align 8
  %6 = icmp slt i32 %3, %5
  br i1 %6, label %.preheader63.lr.ph, label %.preheader61

.preheader63.lr.ph:                               ; preds = %1
  %7 = getelementptr inbounds nuw i8, ptr %0, i64 40
  %8 = getelementptr inbounds nuw i8, ptr %0, i64 4536
  %9 = sext i32 %3 to i64
  br label %.preheader63

.preheader63:                                     ; preds = %.preheader63.lr.ph, %._crit_edge69.thread
  %10 = phi i32 [ %5, %.preheader63.lr.ph ], [ %37, %._crit_edge69.thread ]
  %indvars.iv92 = phi i64 [ %9, %.preheader63.lr.ph ], [ %indvars.iv.next93, %._crit_edge69.thread ]
  %11 = icmp sgt i32 %10, 0
  br i1 %11, label %.lr.ph, label %._crit_edge69.thread

.lr.ph:                                           ; preds = %.preheader63
  %wide.trip.count = zext nneg i32 %10 to i64
  br label %16

.preheader61:                                     ; preds = %._crit_edge69.thread, %1
  %12 = phi i32 [ %5, %1 ], [ %37, %._crit_edge69.thread ]
  %13 = icmp sgt i32 %12, 1
  br i1 %13, label %.preheader60.lr.ph, label %._crit_edge84

.preheader60.lr.ph:                               ; preds = %.preheader61
  %14 = getelementptr inbounds nuw i8, ptr %0, i64 40
  %15 = getelementptr inbounds nuw i8, ptr %0, i64 4536
  br label %.preheader60

16:                                               ; preds = %.lr.ph, %16
  %indvars.iv = phi i64 [ 0, %.lr.ph ], [ %indvars.iv.next, %16 ]
  %.05065 = phi i32 [ 0, %.lr.ph ], [ %21, %16 ]
  %17 = getelementptr inbounds [32 x [32 x i32]], ptr %7, i64 0, i64 %indvars.iv92, i64 %indvars.iv
  %18 = load i32, ptr %17, align 4
  %19 = icmp eq i32 %18, 1
  %20 = zext i1 %19 to i32
  %21 = add nuw nsw i32 %.05065, %20
  %indvars.iv.next = add nuw nsw i64 %indvars.iv, 1
  %exitcond.not = icmp eq i64 %indvars.iv.next, %wide.trip.count
  br i1 %exitcond.not, label %._crit_edge, label %16, !llvm.loop !24

._crit_edge:                                      ; preds = %16
  %22 = icmp eq i32 %21, 3
  br i1 %22, label %._crit_edge69.thread, label %.lr.ph68

.lr.ph68:                                         ; preds = %._crit_edge
  %wide.trip.count90 = zext nneg i32 %10 to i64
  br label %23

23:                                               ; preds = %.lr.ph68, %32
  %indvars.iv87 = phi i64 [ 0, %.lr.ph68 ], [ %indvars.iv.next88, %32 ]
  %.05167 = phi i32 [ 0, %.lr.ph68 ], [ %.1, %32 ]
  %24 = getelementptr inbounds [32 x [32 x i32]], ptr %7, i64 0, i64 %indvars.iv92, i64 %indvars.iv87
  %25 = load i32, ptr %24, align 4
  %26 = icmp sgt i32 %25, 1
  br i1 %26, label %27, label %32

27:                                               ; preds = %23
  %28 = shl nuw nsw i32 %25, 1
  %29 = add nsw i32 %.05167, 1
  %30 = sext i32 %.05167 to i64
  %31 = getelementptr inbounds [32 x i32], ptr %2, i64 0, i64 %30
  store i32 %28, ptr %31, align 4
  br label %32

32:                                               ; preds = %23, %27
  %.1 = phi i32 [ %29, %27 ], [ %.05167, %23 ]
  %indvars.iv.next88 = add nuw nsw i64 %indvars.iv87, 1
  %exitcond91.not = icmp eq i64 %indvars.iv.next88, %wide.trip.count90
  br i1 %exitcond91.not, label %._crit_edge69, label %23, !llvm.loop !25

._crit_edge69:                                    ; preds = %32
  %33 = icmp sgt i32 %.1, 0
  br i1 %33, label %34, label %._crit_edge69.thread

34:                                               ; preds = %._crit_edge69
  %35 = load ptr, ptr %8, align 8
  %36 = call i32 @bmcg_sat_solver_addclause(ptr noundef %35, ptr noundef nonnull %2, i32 noundef %.1) #22
  %.pre = load i32, ptr %4, align 8
  br label %._crit_edge69.thread

._crit_edge69.thread:                             ; preds = %._crit_edge, %.preheader63, %34, %._crit_edge69
  %37 = phi i32 [ %.pre, %34 ], [ %10, %._crit_edge69 ], [ %10, %._crit_edge ], [ %10, %.preheader63 ]
  %indvars.iv.next93 = add nsw i64 %indvars.iv92, 1
  %38 = sext i32 %37 to i64
  %39 = icmp slt i64 %indvars.iv.next93, %38
  br i1 %39, label %.preheader63, label %.preheader61, !llvm.loop !26

.preheader60:                                     ; preds = %.preheader60.lr.ph, %._crit_edge80.thread
  %40 = phi i32 [ %12, %.preheader60.lr.ph ], [ %62, %._crit_edge80.thread ]
  %indvars.iv105 = phi i64 [ 0, %.preheader60.lr.ph ], [ %indvars.iv.next106, %._crit_edge80.thread ]
  %41 = icmp sgt i32 %40, 0
  br i1 %41, label %.lr.ph74, label %._crit_edge80.thread

.lr.ph74:                                         ; preds = %.preheader60
  %wide.trip.count98 = zext nneg i32 %40 to i64
  br label %42

42:                                               ; preds = %.lr.ph74, %42
  %indvars.iv95 = phi i64 [ 0, %.lr.ph74 ], [ %indvars.iv.next96, %42 ]
  %.073 = phi i32 [ 0, %.lr.ph74 ], [ %47, %42 ]
  %43 = getelementptr inbounds nuw [32 x [32 x i32]], ptr %14, i64 0, i64 %indvars.iv95, i64 %indvars.iv105
  %44 = load i32, ptr %43, align 4
  %45 = icmp eq i32 %44, 1
  %46 = zext i1 %45 to i32
  %47 = add nuw nsw i32 %.073, %46
  %indvars.iv.next96 = add nuw nsw i64 %indvars.iv95, 1
  %exitcond99.not = icmp eq i64 %indvars.iv.next96, %wide.trip.count98
  br i1 %exitcond99.not, label %._crit_edge75, label %42, !llvm.loop !27

._crit_edge75:                                    ; preds = %42
  %.not = icmp eq i32 %47, 0
  br i1 %.not, label %.lr.ph79, label %._crit_edge80.thread

.lr.ph79:                                         ; preds = %._crit_edge75
  %wide.trip.count103 = zext nneg i32 %40 to i64
  br label %48

48:                                               ; preds = %.lr.ph79, %57
  %indvars.iv100 = phi i64 [ 0, %.lr.ph79 ], [ %indvars.iv.next101, %57 ]
  %.278 = phi i32 [ 0, %.lr.ph79 ], [ %.3, %57 ]
  %49 = getelementptr inbounds nuw [32 x [32 x i32]], ptr %14, i64 0, i64 %indvars.iv100, i64 %indvars.iv105
  %50 = load i32, ptr %49, align 4
  %51 = icmp sgt i32 %50, 1
  br i1 %51, label %52, label %57

52:                                               ; preds = %48
  %53 = shl nuw nsw i32 %50, 1
  %54 = add nsw i32 %.278, 1
  %55 = sext i32 %.278 to i64
  %56 = getelementptr inbounds [32 x i32], ptr %2, i64 0, i64 %55
  store i32 %53, ptr %56, align 4
  br label %57

57:                                               ; preds = %48, %52
  %.3 = phi i32 [ %54, %52 ], [ %.278, %48 ]
  %indvars.iv.next101 = add nuw nsw i64 %indvars.iv100, 1
  %exitcond104.not = icmp eq i64 %indvars.iv.next101, %wide.trip.count103
  br i1 %exitcond104.not, label %._crit_edge80, label %48, !llvm.loop !28

._crit_edge80:                                    ; preds = %57
  %58 = icmp sgt i32 %.3, 0
  br i1 %58, label %59, label %._crit_edge80.thread

59:                                               ; preds = %._crit_edge80
  %60 = load ptr, ptr %15, align 8
  %61 = call i32 @bmcg_sat_solver_addclause(ptr noundef %60, ptr noundef nonnull %2, i32 noundef %.3) #22
  %.pre108 = load i32, ptr %4, align 8
  br label %._crit_edge80.thread

._crit_edge80.thread:                             ; preds = %._crit_edge75, %.preheader60, %59, %._crit_edge80
  %62 = phi i32 [ %.pre108, %59 ], [ %40, %._crit_edge80 ], [ %40, %._crit_edge75 ], [ %40, %.preheader60 ]
  %indvars.iv.next106 = add nuw nsw i64 %indvars.iv105, 1
  %63 = add nsw i32 %62, -1
  %64 = sext i32 %63 to i64
  %65 = icmp slt i64 %indvars.iv.next106, %64
  br i1 %65, label %.preheader60, label %._crit_edge84, !llvm.loop !29

._crit_edge84:                                    ; preds = %._crit_edge80.thread, %.preheader61
  %66 = getelementptr inbounds nuw i8, ptr %0, i64 4536
  %67 = load ptr, ptr %66, align 8
  %68 = call i32 @bmcg_sat_solver_solve(ptr noundef %67, ptr noundef null, i32 noundef 0) #22
  call void @Maj3_ManVarMapPrint(ptr noundef nonnull %0)
  ret i32 1
}